target datalayout = "e-m:e-p270:32:32-p271:32:32-p272:64:64-i64:64-i128:128-f80:128-n8:16:32:64-S128"
target triple = "x86_64-pc-linux-gnu"

%class.aig_lit = type { ptr }
%class.aig_ref = type { ptr, ptr }

@_ZN7aig_refC1ER11aig_managerRK7aig_lit = hidden unnamed_addr alias void (ptr, ptr, ptr), ptr @_ZN7aig_refC2ER11aig_managerRK7aig_lit

; Function Attrs: mustprogress nounwind uwtable
define linkonce_odr hidden void @_ZN7aig_lit6invertEv(ptr noundef nonnull align 8 dereferenceable(8) %0) #4 comdat align 2 {
  %2 = alloca ptr, align 8
  store ptr %0, ptr %2, align 8, !tbaa !3
  %3 = load ptr, ptr %2, align 8
  %4 = getelementptr inbounds nuw %class.aig_lit, ptr %3, i32 0, i32 0
  %5 = load ptr, ptr %4, align 8, !tbaa !10
  %6 = ptrtoint ptr %5 to i64
  %7 = xor i64 %6, 1
  %8 = inttoptr i64 %7 to ptr
  %9 = getelementptr inbounds nuw %class.aig_lit, ptr %3, i32 0, i32 0
  store ptr %8, ptr %9, align 8, !tbaa !10
  ret void
}

; Function Attrs: mustprogress nounwind uwtable
define linkonce_odr hidden void @_ZN7aig_litC2ERK7aig_ref(ptr noundef nonnull align 8 dereferenceable(8) %0, ptr noundef nonnull align 8 dereferenceable(16) %1) unnamed_addr #4 comdat align 2 {
  %3 = alloca ptr, align 8
  %4 = alloca ptr, align 8
  store ptr %0, ptr %3, align 8, !tbaa !3
  store ptr %1, ptr %4, align 8, !tbaa !12
  %5 = load ptr, ptr %3, align 8
  %6 = getelementptr inbounds nuw %class.aig_lit, ptr %5, i32 0, i32 0
  %7 = load ptr, ptr %4, align 8, !tbaa !12
  %8 = getelementptr inbounds nuw %class.aig_ref, ptr %7, i32 0, i32 1
  %9 = load ptr, ptr %8, align 8, !tbaa !17
  store ptr %9, ptr %6, align 8, !tbaa !10
  ret void
}

; Function Attrs: mustprogress uwtable
define hidden void @_ZN11aig_manager6mk_notERK7aig_ref(ptr dead_on_unwind noalias writable sret(%class.aig_ref) align 8 %0, ptr noundef nonnull align 8 dereferenceable(8) %1, ptr noundef nonnull align 8 dereferenceable(16) %2) #5 align 2 {
  %4 = alloca ptr, align 8
  %5 = alloca ptr, align 8
  %6 = alloca ptr, align 8
  %7 = alloca %class.aig_lit, align 8
  store ptr %0, ptr %4, align 8
  store ptr %1, ptr %5, align 8, !tbaa !18
  store ptr %2, ptr %6, align 8, !tbaa !12
  %8 = load ptr, ptr %5, align 8
  call void @llvm.lifetime.start.p0(i64 8, ptr %7) #3
  %9 = load ptr, ptr %6, align 8, !tbaa !12
  call void @_ZN7aig_litC2ERK7aig_ref(ptr noundef nonnull align 8 dereferenceable(8) %7, ptr noundef nonnull align 8 dereferenceable(16) %9)
  call void @_ZN7aig_lit6invertEv(ptr noundef nonnull align 8 dereferenceable(8) %7)
  call void @_ZN7aig_refC1ER11aig_managerRK7aig_lit(ptr noundef nonnull align 8 dereferenceable(16) %0, ptr noundef nonnull align 8 dereferenceable(8) %8, ptr noundef nonnull align 8 dereferenceable(8) %7)
  call void @llvm.lifetime.end.p0(i64 8, ptr %7) #3
  ret void
}