; Function Attrs: mustprogress nofree norecurse nosync nounwind willreturn memory(readwrite, inaccessiblemem: none) uwtable
define hidden void @_ZN11aig_manager6mk_notERK7aig_ref(ptr dead_on_unwind noalias writable writeonly sret(%class.aig_ref) align 8 captures(none) initializes((0, 16)) %0, ptr noundef nonnull align 8 dereferenceable(8) %1, ptr noundef nonnull readonly align 8 captures(none) dereferenceable(16) %2) local_unnamed_addr #4 align 2 {
  %4 = getelementptr inbounds nuw i8, ptr %2, i64 8
  %5 = load ptr, ptr %4, align 8, !tbaa !12
  %6 = ptrtoint ptr %5 to i64
  %7 = xor i64 %6, 1
  %8 = inttoptr i64 %7 to ptr
  store ptr %1, ptr %0, align 8, !tbaa !3
  %9 = getelementptr inbounds nuw i8, ptr %0, i64 8
  store ptr %8, ptr %9, align 8, !tbaa !12
  %10 = and i64 %6, -2
  %11 = inttoptr i64 %10 to ptr
  %12 = getelementptr inbounds nuw i8, ptr %11, i64 4
  %13 = load i32, ptr %12, align 4, !tbaa !13
  %14 = add i32 %13, 1
  store i32 %14, ptr %12, align 4, !tbaa !13
  ret void
}